; Function Attrs: nounwind uwtable
define void @WebPAnimDecoderReset(ptr noundef %0) local_unnamed_addr #1 {
  %.not = icmp eq ptr %0, null
  br i1 %.not, label %6, label %2

2:                                                ; preds = %1
  %3 = getelementptr inbounds nuw i8, ptr %0, i64 312
  store i32 0, ptr %3, align 8, !tbaa !36
  %4 = getelementptr inbounds nuw i8, ptr %0, i64 320
  tail call void @WebPDemuxReleaseIterator(ptr noundef nonnull %4) #9
  %5 = getelementptr inbounds nuw i8, ptr %0, i64 404
  tail call void @llvm.memset.p0.i64(ptr noundef nonnull align 8 dereferenceable(84) %4, i8 0, i64 84, i1 false)
  store i32 1, ptr %5, align 4, !tbaa !37
  br label %6

6:                                                ; preds = %2, %1
  ret void
}